; Function Attrs: nounwind uwtable
define internal range(i32 0, 2) i32 @fake_rsa_dgstvfy_final(ptr noundef %0, ptr readnone captures(none) %1, i64 %2) #1 {
  %4 = tail call i32 @test_ptr(ptr noundef nonnull @.str.9, i32 noundef 441, ptr noundef nonnull @.str.19, ptr noundef %0) #12
  %.not.i = icmp eq i32 %4, 0
  br i1 %.not.i, label %fake_rsa_dgstsgnvfy_final.exit, label %5

5:                                                ; preds = %3
  %6 = load i8, ptr %0, align 1, !tbaa !14
  %7 = icmp eq i8 %6, 0
  %8 = and i8 %6, 9
  %9 = icmp ne i8 %8, 0
  %or.cond = or i1 %7, %9
  br i1 %or.cond, label %fake_rsa_dgstsgnvfy_final.exit, label %10

10:                                               ; preds = %5
  %11 = and i8 %6, -96
  %.not26.i = icmp eq i8 %11, 0
  br i1 %.not26.i, label %fake_rsa_dgstsgnvfy_final.exit, label %12

12:                                               ; preds = %10
  %13 = or disjoint i8 %6, 8
  store i8 %13, ptr %0, align 1, !tbaa !14
  br label %fake_rsa_dgstsgnvfy_final.exit

fake_rsa_dgstsgnvfy_final.exit:                   ; preds = %3, %5, %10, %12
  %.0.i = phi i32 [ 0, %3 ], [ 0, %5 ], [ 1, %12 ], [ 1, %10 ]
  ret i32 %.0.i
}